target datalayout = "e-m:e-p270:32:32-p271:32:32-p272:64:64-i64:64-i128:128-f80:128-n8:16:32:64-S128"
target triple = "x86_64-pc-linux-gnu"

; Function Attrs: mustprogress uwtable
define internal void @_ZN6json1112_GLOBAL__N_110JsonParser11encode_utf8ElRNSt7__cxx1112basic_stringIcSt11char_traitsIcESaIcEEE(ptr noundef nonnull align 8 dereferenceable(32) %0, i64 noundef %1, ptr noundef nonnull align 8 dereferenceable(32) %2) #0 align 2 {
  %4 = alloca ptr, align 8
  %5 = alloca i64, align 8
  %6 = alloca ptr, align 8
  store ptr %0, ptr %4, align 8
  store i64 %1, ptr %5, align 8
  store ptr %2, ptr %6, align 8
  %7 = load i64, ptr %5, align 8
  %8 = icmp slt i64 %7, 0
  br i1 %8, label %9, label %10

9:                                                ; preds = %3
  br label %86

10:                                               ; preds = %3
  %11 = load i64, ptr %5, align 8
  %12 = icmp slt i64 %11, 128
  br i1 %12, label %13, label %18

13:                                               ; preds = %10
  %14 = load i64, ptr %5, align 8
  %15 = trunc i64 %14 to i8
  %16 = load ptr, ptr %6, align 8
  %17 = call noundef nonnull align 8 dereferenceable(32) ptr @_ZNSt7__cxx1112basic_stringIcSt11char_traitsIcESaIcEEpLEc(ptr noundef nonnull align 8 dereferenceable(32) %16, i8 noundef signext %15)
  br label %86

18:                                               ; preds = %10
  %19 = load i64, ptr %5, align 8
  %20 = icmp slt i64 %19, 2048
  br i1 %20, label %21, label %34

21:                                               ; preds = %18
  %22 = load i64, ptr %5, align 8
  %23 = ashr i64 %22, 6
  %24 = or i64 %23, 192
  %25 = trunc i64 %24 to i8
  %26 = load ptr, ptr %6, align 8
  %27 = call noundef nonnull align 8 dereferenceable(32) ptr @_ZNSt7__cxx1112basic_stringIcSt11char_traitsIcESaIcEEpLEc(ptr noundef nonnull align 8 dereferenceable(32) %26, i8 noundef signext %25)
  %28 = load i64, ptr %5, align 8
  %29 = and i64 %28, 63
  %30 = or i64 %29, 128
  %31 = trunc i64 %30 to i8
  %32 = load ptr, ptr %6, align 8
  %33 = call noundef nonnull align 8 dereferenceable(32) ptr @_ZNSt7__cxx1112basic_stringIcSt11char_traitsIcESaIcEEpLEc(ptr noundef nonnull align 8 dereferenceable(32) %32, i8 noundef signext %31)
  br label %85

34:                                               ; preds = %18
  %35 = load i64, ptr %5, align 8
  %36 = icmp slt i64 %35, 65536
  br i1 %36, label %37, label %57

37:                                               ; preds = %34
  %38 = load i64, ptr %5, align 8
  %39 = ashr i64 %38, 12
  %40 = or i64 %39, 224
  %41 = trunc i64 %40 to i8
  %42 = load ptr, ptr %6, align 8
  %43 = call noundef nonnull align 8 dereferenceable(32) ptr @_ZNSt7__cxx1112basic_stringIcSt11char_traitsIcESaIcEEpLEc(ptr noundef nonnull align 8 dereferenceable(32) %42, i8 noundef signext %41)
  %44 = load i64, ptr %5, align 8
  %45 = ashr i64 %44, 6
  %46 = and i64 %45, 63
  %47 = or i64 %46, 128
  %48 = trunc i64 %47 to i8
  %49 = load ptr, ptr %6, align 8
  %50 = call noundef nonnull align 8 dereferenceable(32) ptr @_ZNSt7__cxx1112basic_stringIcSt11char_traitsIcESaIcEEpLEc(ptr noundef nonnull align 8 dereferenceable(32) %49, i8 noundef signext %48)
  %51 = load i64, ptr %5, align 8
  %52 = and i64 %51, 63
  %53 = or i64 %52, 128
  %54 = trunc i64 %53 to i8
  %55 = load ptr, ptr %6, align 8
  %56 = call noundef nonnull align 8 dereferenceable(32) ptr @_ZNSt7__cxx1112basic_stringIcSt11char_traitsIcESaIcEEpLEc(ptr noundef nonnull align 8 dereferenceable(32) %55, i8 noundef signext %54)
  br label %84

57:                                               ; preds = %34
  %58 = load i64, ptr %5, align 8
  %59 = ashr i64 %58, 18
  %60 = or i64 %59, 240
  %61 = trunc i64 %60 to i8
  %62 = load ptr, ptr %6, align 8
  %63 = call noundef nonnull align 8 dereferenceable(32) ptr @_ZNSt7__cxx1112basic_stringIcSt11char_traitsIcESaIcEEpLEc(ptr noundef nonnull align 8 dereferenceable(32) %62, i8 noundef signext %61)
  %64 = load i64, ptr %5, align 8
  %65 = ashr i64 %64, 12
  %66 = and i64 %65, 63
  %67 = or i64 %66, 128
  %68 = trunc i64 %67 to i8
  %69 = load ptr, ptr %6, align 8
  %70 = call noundef nonnull align 8 dereferenceable(32) ptr @_ZNSt7__cxx1112basic_stringIcSt11char_traitsIcESaIcEEpLEc(ptr noundef nonnull align 8 dereferenceable(32) %69, i8 noundef signext %68)
  %71 = load i64, ptr %5, align 8
  %72 = ashr i64 %71, 6
  %73 = and i64 %72, 63
  %74 = or i64 %73, 128
  %75 = trunc i64 %74 to i8
  %76 = load ptr, ptr %6, align 8
  %77 = call noundef nonnull align 8 dereferenceable(32) ptr @_ZNSt7__cxx1112basic_stringIcSt11char_traitsIcESaIcEEpLEc(ptr noundef nonnull align 8 dereferenceable(32) %76, i8 noundef signext %75)
  %78 = load i64, ptr %5, align 8
  %79 = and i64 %78, 63
  %80 = or i64 %79, 128
  %81 = trunc i64 %80 to i8
  %82 = load ptr, ptr %6, align 8
  %83 = call noundef nonnull align 8 dereferenceable(32) ptr @_ZNSt7__cxx1112basic_stringIcSt11char_traitsIcESaIcEEpLEc(ptr noundef nonnull align 8 dereferenceable(32) %82, i8 noundef signext %81)
  br label %84

84:                                               ; preds = %57, %37
  br label %85

85:                                               ; preds = %84, %21
  br label %86

86:                                               ; preds = %85, %13, %9
  ret void
}